; Function Attrs: mustprogress uwtable
define noundef zeroext i1 @_ZN3zmq13zmtp_engine_t14handshake_v2_0Ev(ptr noundef nonnull align 8 dereferenceable(1976) %this) #0 align 2 personality ptr @__gxx_personality_v0 {
entry:
  %_session.i = getelementptr inbounds i8, ptr %this, i64 1672
  %0 = load ptr, ptr %_session.i, align 8
  %call2 = tail call noundef zeroext i1 @_ZNK3zmq14session_base_t11zap_enabledEv(ptr noundef nonnull align 8 dereferenceable(1624) %0)
  br i1 %call2, label %if.then, label %if.end

if.then:                                          ; preds = %entry
  tail call void @_ZN3zmq20stream_engine_base_t5errorENS_8i_engine14error_reason_tE(ptr noundef nonnull align 8 dereferenceable(1689) %this, i32 noundef 0)
  br label %return

if.end:                                           ; preds = %entry
  %call3 = tail call noalias noundef dereferenceable_or_null(88) ptr @_ZnwmRKSt9nothrow_t(i64 noundef 88, ptr noundef nonnull align 1 dereferenceable(1) @_ZSt7nothrow) #21
  %new.isnull = icmp eq ptr %call3, null
  br i1 %new.isnull, label %if.then6, label %new.notnull

new.notnull:                                      ; preds = %if.end
  %out_batch_size = getelementptr inbounds i8, ptr %this, i64 1024
  %1 = load i32, ptr %out_batch_size, align 8
  %conv = sext i32 %1 to i64
  invoke void @_ZN3zmq12v2_encoder_tC1Em(ptr noundef nonnull align 8 dereferenceable(88) %call3, i64 noundef %conv)
          to label %new.cont unwind label %lpad

new.cont:                                         ; preds = %new.notnull
  %_encoder = getelementptr inbounds i8, ptr %this, i64 1400
  store ptr %call3, ptr %_encoder, align 8
  br label %do.end

if.then6:                                         ; preds = %if.end
  %_encoder2 = getelementptr inbounds i8, ptr %this, i64 1400
  store ptr null, ptr %_encoder2, align 8
  %2 = load ptr, ptr @stderr, align 8
  %call7 = tail call i32 (ptr, ptr, ...) @fprintf(ptr noundef %2, ptr noundef nonnull @.str.9, ptr noundef nonnull @.str.1, i32 noundef 309) #18
  %3 = load ptr, ptr @stderr, align 8
  %call8 = tail call i32 @fflush(ptr noundef %3)
  tail call void @_ZN3zmq9zmq_abortEPKc(ptr noundef nonnull @.str.10)
  br label %do.end

lpad:                                             ; preds = %new.notnull
  %4 = landingpad { ptr, i32 }
          cleanup
  br label %eh.resume

do.end:                                           ; preds = %new.cont, %if.then6
  %call10 = tail call noalias noundef dereferenceable_or_null(184) ptr @_ZnwmRKSt9nothrow_t(i64 noundef 184, ptr noundef nonnull align 1 dereferenceable(1) @_ZSt7nothrow) #21
  %new.isnull11 = icmp eq ptr %call10, null
  br i1 %new.isnull11, label %if.then31, label %new.notnull12

new.notnull12:                                    ; preds = %do.end
  %in_batch_size = getelementptr inbounds i8, ptr %this, i64 1020
  %5 = load i32, ptr %in_batch_size, align 4
  %conv16 = sext i32 %5 to i64
  %maxmsgsize = getelementptr inbounds i8, ptr %this, i64 368
  %6 = load i64, ptr %maxmsgsize, align 8
  %zero_copy = getelementptr inbounds i8, ptr %this, i64 1028
  %7 = load i8, ptr %zero_copy, align 4
  %8 = and i8 %7, 1
  %tobool19 = icmp ne i8 %8, 0
  invoke void @_ZN3zmq12v2_decoder_tC1Emlb(ptr noundef nonnull align 8 dereferenceable(184) %call10, i64 noundef %conv16, i64 noundef %6, i1 noundef zeroext %tobool19)
          to label %new.cont25 unwind label %lpad20

new.cont25:                                       ; preds = %new.notnull12
  %_decoder = getelementptr inbounds i8, ptr %this, i64 1376
  store ptr %call10, ptr %_decoder, align 8
  br label %return

if.then31:                                        ; preds = %do.end
  %_decoder4 = getelementptr inbounds i8, ptr %this, i64 1376
  store ptr null, ptr %_decoder4, align 8
  %9 = load ptr, ptr @stderr, align 8
  %call32 = tail call i32 (ptr, ptr, ...) @fprintf(ptr noundef %9, ptr noundef nonnull @.str.9, ptr noundef nonnull @.str.1, i32 noundef 313) #18
  %10 = load ptr, ptr @stderr, align 8
  %call33 = tail call i32 @fflush(ptr noundef %10)
  tail call void @_ZN3zmq9zmq_abortEPKc(ptr noundef nonnull @.str.10)
  br label %return

lpad20:                                           ; preds = %new.notnull12
  %11 = landingpad { ptr, i32 }
          cleanup
  br label %eh.resume

return:                                           ; preds = %new.cont25, %if.then31, %if.then
  %retval.0 = xor i1 %call2, true
  ret i1 %retval.0

eh.resume:                                        ; preds = %lpad20, %lpad
  %call10.sink = phi ptr [ %call10, %lpad20 ], [ %call3, %lpad ]
  %.pn = phi { ptr, i32 } [ %11, %lpad20 ], [ %4, %lpad ]
  tail call void @_ZdlPvRKSt9nothrow_t(ptr noundef nonnull %call10.sink, ptr noundef nonnull align 1 dereferenceable(1) @_ZSt7nothrow) #20
  resume { ptr, i32 } %.pn
}